target datalayout = "e-m:e-p270:32:32-p271:32:32-p272:64:64-i64:64-i128:128-f80:128-n8:16:32:64-S128"
target triple = "x86_64-pc-linux-gnu"

@.str = private unnamed_addr constant [43 x i8] c"../openssl/test/tls13groupselection_test.c\00", align 1
@.str.1 = private unnamed_addr constant [28 x i8] c"cert = test_get_argument(0)\00", align 1
@cert = internal global ptr null, align 8
@.str.2 = private unnamed_addr constant [31 x i8] c"privkey = test_get_argument(1)\00", align 1
@privkey = internal global ptr null, align 8
@.str.3 = private unnamed_addr constant [25 x i8] c"tls13groupselection_test\00", align 1

; Function Attrs: nounwind uwtable
define dso_local i32 @setup_tests() #0 {
  %1 = alloca i32, align 4
  %2 = call ptr @test_get_argument(i64 noundef 0)
  store ptr %2, ptr @cert, align 8, !tbaa !4
  %3 = call i32 @test_ptr(ptr noundef @.str, i32 noundef 540, ptr noundef @.str.1, ptr noundef %2)
  %4 = icmp ne i32 %3, 0
  br i1 %4, label %5, label %9

5:                                                ; preds = %0
  %6 = call ptr @test_get_argument(i64 noundef 1)
  store ptr %6, ptr @privkey, align 8, !tbaa !4
  %7 = call i32 @test_ptr(ptr noundef @.str, i32 noundef 541, ptr noundef @.str.2, ptr noundef %6)
  %8 = icmp ne i32 %7, 0
  br i1 %8, label %10, label %9

9:                                                ; preds = %5, %0
  store i32 0, ptr %1, align 4
  br label %11

10:                                               ; preds = %5
  call void @add_all_tests(ptr noundef @.str.3, ptr noundef @tls13groupselection_test, i32 noundef 43, i32 noundef 1)
  store i32 1, ptr %1, align 4
  br label %11

11:                                               ; preds = %10, %9
  %12 = load i32, ptr %1, align 4
  ret i32 %12
}