; Function Attrs: nounwind uwtable
define dso_local range(i32 0, 2) i32 @setup_tests() local_unnamed_addr #0 {
  %1 = tail call ptr @test_get_argument(i64 noundef 0) #6
  store ptr %1, ptr @cert, align 8, !tbaa !4
  %2 = tail call i32 @test_ptr(ptr noundef nonnull @.str, i32 noundef 540, ptr noundef nonnull @.str.1, ptr noundef %1) #6
  %.not = icmp eq i32 %2, 0
  br i1 %.not, label %7, label %3

3:                                                ; preds = %0
  %4 = tail call ptr @test_get_argument(i64 noundef 1) #6
  store ptr %4, ptr @privkey, align 8, !tbaa !4
  %5 = tail call i32 @test_ptr(ptr noundef nonnull @.str, i32 noundef 541, ptr noundef nonnull @.str.2, ptr noundef %4) #6
  %.not1 = icmp eq i32 %5, 0
  br i1 %.not1, label %7, label %6

6:                                                ; preds = %3
  tail call void @add_all_tests(ptr noundef nonnull @.str.3, ptr noundef nonnull @tls13groupselection_test, i32 noundef 43, i32 noundef 1) #6
  br label %7

7:                                                ; preds = %0, %3, %6
  %.0 = phi i32 [ 1, %6 ], [ 0, %3 ], [ 0, %0 ]
  ret i32 %.0
}